; ModuleID = '11/827.c'
source_filename = "11/827.c"
target datalayout = "e-m:e-p270:32:32-p271:32:32-p272:64:64-i64:64-f80:128-n8:16:32:64-S128"
target triple = "x86_64-pc-linux-gnu"

@.str = private unnamed_addr constant [9 x i8] c"%d %d %d\00", align 1
@.str.1 = private unnamed_addr constant [3 x i8] c"%d\00", align 1

; Function Attrs: noinline nounwind uwtable
define dso_local i32 @main() #0 {
  %1 = alloca i32, align 4
  %2 = alloca i32, align 4
  %3 = alloca i32, align 4
  %4 = alloca i32, align 4
  %5 = alloca i32, align 4
  %6 = alloca [13 x i32], align 16
  %7 = alloca i32, align 4
  store i32 0, i32* %1, align 4
  %8 = getelementptr inbounds [13 x i32], [13 x i32]* %6, i64 0, i64 0
  store i32 0, i32* %8, align 16
  store i32 0, i32* %7, align 4
  %9 = call i32 (i8*, ...) @__isoc99_scanf(i8* getelementptr inbounds ([9 x i8], [9 x i8]* @.str, i64 0, i64 0), i32* %2, i32* %3, i32* %4)
  %10 = getelementptr inbounds [13 x i32], [13 x i32]* %6, i64 0, i64 12
  store i32 31, i32* %10, align 16
  %11 = getelementptr inbounds [13 x i32], [13 x i32]* %6, i64 0, i64 10
  store i32 31, i32* %11, align 8
  %12 = getelementptr inbounds [13 x i32], [13 x i32]* %6, i64 0, i64 8
  store i32 31, i32* %12, align 16
  %13 = getelementptr inbounds [13 x i32], [13 x i32]* %6, i64 0, i64 7
  store i32 31, i32* %13, align 4
  %14 = getelementptr inbounds [13 x i32], [13 x i32]* %6, i64 0, i64 5
  store i32 31, i32* %14, align 4
  %15 = getelementptr inbounds [13 x i32], [13 x i32]* %6, i64 0, i64 3
  store i32 31, i32* %15, align 4
  %16 = getelementptr inbounds [13 x i32], [13 x i32]* %6, i64 0, i64 1
  store i32 31, i32* %16, align 4
  %17 = getelementptr inbounds [13 x i32], [13 x i32]* %6, i64 0, i64 11
  store i32 30, i32* %17, align 4
  %18 = getelementptr inbounds [13 x i32], [13 x i32]* %6, i64 0, i64 9
  store i32 30, i32* %18, align 4
  %19 = getelementptr inbounds [13 x i32], [13 x i32]* %6, i64 0, i64 6
  store i32 30, i32* %19, align 8
  %20 = getelementptr inbounds [13 x i32], [13 x i32]* %6, i64 0, i64 4
  store i32 30, i32* %20, align 16
  %21 = load i32, i32* %2, align 4
  %22 = srem i32 %21, 400
  %23 = icmp eq i32 %22, 0
  br i1 %23, label %32, label %24

24:                                               ; preds = %0
  %25 = load i32, i32* %2, align 4
  %26 = srem i32 %25, 4
  %27 = icmp eq i32 %26, 0
  br i1 %27, label %28, label %34

28:                                               ; preds = %24
  %29 = load i32, i32* %2, align 4
  %30 = srem i32 %29, 100
  %31 = icmp ne i32 %30, 0
  br i1 %31, label %32, label %34

32:                                               ; preds = %28, %0
  %33 = getelementptr inbounds [13 x i32], [13 x i32]* %6, i64 0, i64 2
  store i32 29, i32* %33, align 8
  br label %36

34:                                               ; preds = %28, %24
  %35 = getelementptr inbounds [13 x i32], [13 x i32]* %6, i64 0, i64 2
  store i32 28, i32* %35, align 8
  br label %36

36:                                               ; preds = %34, %32
  store i32 1, i32* %5, align 4
  br label %37

37:                                               ; preds = %48, %36
  %38 = load i32, i32* %5, align 4
  %39 = load i32, i32* %3, align 4
  %40 = icmp slt i32 %38, %39
  br i1 %40, label %41, label %51

41:                                               ; preds = %37
  %42 = load i32, i32* %7, align 4
  %43 = load i32, i32* %5, align 4
  %44 = sext i32 %43 to i64
  %45 = getelementptr inbounds [13 x i32], [13 x i32]* %6, i64 0, i64 %44
  %46 = load i32, i32* %45, align 4
  %47 = add nsw i32 %42, %46
  store i32 %47, i32* %7, align 4
  br label %48

48:                                               ; preds = %41
  %49 = load i32, i32* %5, align 4
  %50 = add nsw i32 %49, 1
  store i32 %50, i32* %5, align 4
  br label %37

51:                                               ; preds = %37
  %52 = load i32, i32* %7, align 4
  %53 = load i32, i32* %4, align 4
  %54 = add nsw i32 %52, %53
  store i32 %54, i32* %7, align 4
  %55 = load i32, i32* %7, align 4
  %56 = call i32 (i8*, ...) @printf(i8* getelementptr inbounds ([3 x i8], [3 x i8]* @.str.1, i64 0, i64 0), i32 %55)
  %57 = call i32 @getchar()
  %58 = load i32, i32* %1, align 4
  ret i32 %58
}

declare dso_local i32 @__isoc99_scanf(i8*, ...) #1

declare dso_local i32 @printf(i8*, ...) #1

declare dso_local i32 @getchar() #1


!llvm.module.flags = !{!0}
!llvm.ident = !{!1}

!0 = !{i32 1, !"wchar_size", i32 4}
!1 = !{!"clang version 10.0.0-4ubuntu1 "}
